target datalayout = "e-m:e-p270:32:32-p271:32:32-p272:64:64-i64:64-i128:128-f80:128-n8:16:32:64-S128"
target triple = "x86_64-pc-linux-gnu"

%struct._object = type { %union.anon, ptr }
%union.anon = type { i64 }
%struct.PyVarObject = type { %struct._object, i64 }
%struct.anon = type { i32, i32 }
%struct.dequeobject = type { %struct.PyVarObject, ptr, ptr, i64, i64, i64, i64, i64, [16 x ptr], ptr }
%struct.BLOCK = type { ptr, [64 x ptr], ptr }

@PyExc_IndexError = external global ptr, align 8
@.str.48 = private unnamed_addr constant [25 x i8] c"deque index out of range\00", align 1

; Function Attrs: alwaysinline nounwind uwtable
define internal void @Py_INCREF(ptr noundef %0) #4 {
  %2 = alloca ptr, align 8
  %3 = alloca i32, align 4
  %4 = alloca i32, align 4
  store ptr %0, ptr %2, align 8, !tbaa !4
  call void @llvm.lifetime.start.p0(i64 4, ptr %3) #7
  %5 = load ptr, ptr %2, align 8, !tbaa !4
  %6 = getelementptr inbounds nuw %struct._object, ptr %5, i32 0, i32 0
  %7 = getelementptr inbounds nuw %struct.anon, ptr %6, i32 0, i32 0
  %8 = load i32, ptr %7, align 8, !tbaa !39
  store i32 %8, ptr %3, align 4, !tbaa !13
  %9 = load i32, ptr %3, align 4, !tbaa !13
  %10 = icmp slt i32 %9, 0
  br i1 %10, label %11, label %12

11:                                               ; preds = %1
  store i32 1, ptr %4, align 4
  br label %18

12:                                               ; preds = %1
  %13 = load i32, ptr %3, align 4, !tbaa !13
  %14 = add i32 %13, 1
  %15 = load ptr, ptr %2, align 8, !tbaa !4
  %16 = getelementptr inbounds nuw %struct._object, ptr %15, i32 0, i32 0
  %17 = getelementptr inbounds nuw %struct.anon, ptr %16, i32 0, i32 0
  store i32 %14, ptr %17, align 8, !tbaa !39
  store i32 0, ptr %4, align 4
  br label %18

18:                                               ; preds = %12, %11
  call void @llvm.lifetime.end.p0(i64 4, ptr %3) #7
  %19 = load i32, ptr %4, align 4
  switch i32 %19, label %21 [
    i32 0, label %20
    i32 1, label %20
  ]

20:                                               ; preds = %18, %18
  ret void

21:                                               ; preds = %18
  unreachable
}

; Function Attrs: inlinehint nounwind uwtable
define internal ptr @_Py_NewRef(ptr noundef %0) #3 {
  %2 = alloca ptr, align 8
  store ptr %0, ptr %2, align 8, !tbaa !4
  %3 = load ptr, ptr %2, align 8, !tbaa !4
  call void @Py_INCREF(ptr noundef %3)
  %4 = load ptr, ptr %2, align 8, !tbaa !4
  ret ptr %4
}

; Function Attrs: nounwind uwtable
define internal i32 @valid_index(i64 noundef %0, i64 noundef %1) #0 {
  %3 = alloca i64, align 8
  %4 = alloca i64, align 8
  store i64 %0, ptr %3, align 8, !tbaa !24
  store i64 %1, ptr %4, align 8, !tbaa !24
  %5 = load i64, ptr %3, align 8, !tbaa !24
  %6 = load i64, ptr %4, align 8, !tbaa !24
  %7 = icmp ult i64 %5, %6
  %8 = zext i1 %7 to i32
  ret i32 %8
}

; Function Attrs: inlinehint nounwind uwtable
define internal i64 @Py_SIZE(ptr noundef %0) #3 {
  %2 = alloca ptr, align 8
  store ptr %0, ptr %2, align 8, !tbaa !4
  %3 = load ptr, ptr %2, align 8, !tbaa !4
  %4 = getelementptr inbounds nuw %struct.PyVarObject, ptr %3, i32 0, i32 1
  %5 = load i64, ptr %4, align 8, !tbaa !72
  ret i64 %5
}

; Function Attrs: nounwind uwtable
define internal ptr @deque_item_lock_held(ptr noundef %0, i64 noundef %1) #0 {
  %3 = alloca ptr, align 8
  %4 = alloca ptr, align 8
  %5 = alloca i64, align 8
  %6 = alloca ptr, align 8
  %7 = alloca ptr, align 8
  %8 = alloca i64, align 8
  %9 = alloca i64, align 8
  %10 = alloca i32, align 4
  store ptr %0, ptr %4, align 8, !tbaa !43
  store i64 %1, ptr %5, align 8, !tbaa !24
  call void @llvm.lifetime.start.p0(i64 8, ptr %6) #7
  call void @llvm.lifetime.start.p0(i64 8, ptr %7) #7
  call void @llvm.lifetime.start.p0(i64 8, ptr %8) #7
  call void @llvm.lifetime.start.p0(i64 8, ptr %9) #7
  %11 = load i64, ptr %5, align 8, !tbaa !24
  store i64 %11, ptr %9, align 8, !tbaa !24
  %12 = load i64, ptr %5, align 8, !tbaa !24
  %13 = load ptr, ptr %4, align 8, !tbaa !43
  %14 = call i64 @Py_SIZE(ptr noundef %13)
  %15 = call i32 @valid_index(i64 noundef %12, i64 noundef %14)
  %16 = icmp ne i32 %15, 0
  br i1 %16, label %19, label %17

17:                                               ; preds = %2
  %18 = load ptr, ptr @PyExc_IndexError, align 8, !tbaa !4
  call void @PyErr_SetString(ptr noundef %18, ptr noundef @.str.48)
  store ptr null, ptr %3, align 8
  store i32 1, ptr %10, align 4
  br label %103

19:                                               ; preds = %2
  %20 = load i64, ptr %5, align 8, !tbaa !24
  %21 = icmp eq i64 %20, 0
  br i1 %21, label %22, label %29

22:                                               ; preds = %19
  %23 = load ptr, ptr %4, align 8, !tbaa !43
  %24 = getelementptr inbounds nuw %struct.dequeobject, ptr %23, i32 0, i32 3
  %25 = load i64, ptr %24, align 8, !tbaa !56
  store i64 %25, ptr %5, align 8, !tbaa !24
  %26 = load ptr, ptr %4, align 8, !tbaa !43
  %27 = getelementptr inbounds nuw %struct.dequeobject, ptr %26, i32 0, i32 1
  %28 = load ptr, ptr %27, align 8, !tbaa !48
  store ptr %28, ptr %6, align 8, !tbaa !51
  br label %95

29:                                               ; preds = %19
  %30 = load i64, ptr %5, align 8, !tbaa !24
  %31 = load ptr, ptr %4, align 8, !tbaa !43
  %32 = call i64 @Py_SIZE(ptr noundef %31)
  %33 = sub i64 %32, 1
  %34 = icmp eq i64 %30, %33
  br i1 %34, label %35, label %42

35:                                               ; preds = %29
  %36 = load ptr, ptr %4, align 8, !tbaa !43
  %37 = getelementptr inbounds nuw %struct.dequeobject, ptr %36, i32 0, i32 4
  %38 = load i64, ptr %37, align 8, !tbaa !61
  store i64 %38, ptr %5, align 8, !tbaa !24
  %39 = load ptr, ptr %4, align 8, !tbaa !43
  %40 = getelementptr inbounds nuw %struct.dequeobject, ptr %39, i32 0, i32 2
  %41 = load ptr, ptr %40, align 8, !tbaa !49
  store ptr %41, ptr %6, align 8, !tbaa !51
  br label %94

42:                                               ; preds = %29
  %43 = load ptr, ptr %4, align 8, !tbaa !43
  %44 = getelementptr inbounds nuw %struct.dequeobject, ptr %43, i32 0, i32 3
  %45 = load i64, ptr %44, align 8, !tbaa !56
  %46 = load i64, ptr %5, align 8, !tbaa !24
  %47 = add i64 %46, %45
  store i64 %47, ptr %5, align 8, !tbaa !24
  %48 = load i64, ptr %5, align 8, !tbaa !24
  %49 = udiv i64 %48, 64
  store i64 %49, ptr %8, align 8, !tbaa !24
  %50 = load i64, ptr %5, align 8, !tbaa !24
  %51 = urem i64 %50, 64
  store i64 %51, ptr %5, align 8, !tbaa !24
  %52 = load i64, ptr %9, align 8, !tbaa !24
  %53 = load ptr, ptr %4, align 8, !tbaa !43
  %54 = call i64 @Py_SIZE(ptr noundef %53)
  %55 = ashr i64 %54, 1
  %56 = icmp slt i64 %52, %55
  br i1 %56, label %57, label %70

57:                                               ; preds = %42
  %58 = load ptr, ptr %4, align 8, !tbaa !43
  %59 = getelementptr inbounds nuw %struct.dequeobject, ptr %58, i32 0, i32 1
  %60 = load ptr, ptr %59, align 8, !tbaa !48
  store ptr %60, ptr %6, align 8, !tbaa !51
  br label %61

61:                                               ; preds = %65, %57
  %62 = load i64, ptr %8, align 8, !tbaa !24
  %63 = add i64 %62, -1
  store i64 %63, ptr %8, align 8, !tbaa !24
  %64 = icmp sge i64 %63, 0
  br i1 %64, label %65, label %69

65:                                               ; preds = %61
  %66 = load ptr, ptr %6, align 8, !tbaa !51
  %67 = getelementptr inbounds nuw %struct.BLOCK, ptr %66, i32 0, i32 2
  %68 = load ptr, ptr %67, align 8, !tbaa !58
  store ptr %68, ptr %6, align 8, !tbaa !51
  br label %61, !llvm.loop !97

69:                                               ; preds = %61
  br label %93

70:                                               ; preds = %42
  %71 = load ptr, ptr %4, align 8, !tbaa !43
  %72 = getelementptr inbounds nuw %struct.dequeobject, ptr %71, i32 0, i32 3
  %73 = load i64, ptr %72, align 8, !tbaa !56
  %74 = load ptr, ptr %4, align 8, !tbaa !43
  %75 = call i64 @Py_SIZE(ptr noundef %74)
  %76 = add i64 %73, %75
  %77 = sub i64 %76, 1
  %78 = udiv i64 %77, 64
  %79 = load i64, ptr %8, align 8, !tbaa !24
  %80 = sub i64 %78, %79
  store i64 %80, ptr %8, align 8, !tbaa !24
  %81 = load ptr, ptr %4, align 8, !tbaa !43
  %82 = getelementptr inbounds nuw %struct.dequeobject, ptr %81, i32 0, i32 2
  %83 = load ptr, ptr %82, align 8, !tbaa !49
  store ptr %83, ptr %6, align 8, !tbaa !51
  br label %84

84:                                               ; preds = %88, %70
  %85 = load i64, ptr %8, align 8, !tbaa !24
  %86 = add i64 %85, -1
  store i64 %86, ptr %8, align 8, !tbaa !24
  %87 = icmp sge i64 %86, 0
  br i1 %87, label %88, label %92

88:                                               ; preds = %84
  %89 = load ptr, ptr %6, align 8, !tbaa !51
  %90 = getelementptr inbounds nuw %struct.BLOCK, ptr %89, i32 0, i32 0
  %91 = load ptr, ptr %90, align 8, !tbaa !73
  store ptr %91, ptr %6, align 8, !tbaa !51
  br label %84, !llvm.loop !98

92:                                               ; preds = %84
  br label %93

93:                                               ; preds = %92, %69
  br label %94

94:                                               ; preds = %93, %35
  br label %95

95:                                               ; preds = %94, %22
  %96 = load ptr, ptr %6, align 8, !tbaa !51
  %97 = getelementptr inbounds nuw %struct.BLOCK, ptr %96, i32 0, i32 1
  %98 = load i64, ptr %5, align 8, !tbaa !24
  %99 = getelementptr [64 x ptr], ptr %97, i64 0, i64 %98
  %100 = load ptr, ptr %99, align 8, !tbaa !4
  store ptr %100, ptr %7, align 8, !tbaa !4
  %101 = load ptr, ptr %7, align 8, !tbaa !4
  %102 = call ptr @_Py_NewRef(ptr noundef %101)
  store ptr %102, ptr %3, align 8
  store i32 1, ptr %10, align 4
  br label %103

103:                                              ; preds = %95, %17
  call void @llvm.lifetime.end.p0(i64 8, ptr %9) #7
  call void @llvm.lifetime.end.p0(i64 8, ptr %8) #7
  call void @llvm.lifetime.end.p0(i64 8, ptr %7) #7
  call void @llvm.lifetime.end.p0(i64 8, ptr %6) #7
  %104 = load ptr, ptr %3, align 8
  ret ptr %104
}

; Function Attrs: nounwind uwtable
define internal ptr @deque_item(ptr noundef %0, i64 noundef %1) #0 {
  %3 = alloca ptr, align 8
  %4 = alloca i64, align 8
  %5 = alloca ptr, align 8
  store ptr %0, ptr %3, align 8, !tbaa !43
  store i64 %1, ptr %4, align 8, !tbaa !24
  call void @llvm.lifetime.start.p0(i64 8, ptr %5) #7
  %6 = load ptr, ptr %3, align 8, !tbaa !43
  %7 = load i64, ptr %4, align 8, !tbaa !24
  %8 = call ptr @deque_item_lock_held(ptr noundef %6, i64 noundef %7)
  store ptr %8, ptr %5, align 8, !tbaa !4
  %9 = load ptr, ptr %5, align 8, !tbaa !4
  call void @llvm.lifetime.end.p0(i64 8, ptr %5) #7
  ret ptr %9
}