; Function Attrs: nounwind uwtable
define internal noundef ptr @deque_item(ptr noundef readonly captures(none) %0, i64 noundef %1) #0 {
  %3 = getelementptr i8, ptr %0, i64 16
  %.val37.i = load i64, ptr %3, align 8, !tbaa !52
  %.not.i = icmp ult i64 %1, %.val37.i
  br i1 %.not.i, label %6, label %4

4:                                                ; preds = %2
  %5 = load ptr, ptr @PyExc_IndexError, align 8, !tbaa !21
  tail call void @PyErr_SetString(ptr noundef %5, ptr noundef nonnull @.str.48) #9
  br label %deque_item_lock_held.exit

6:                                                ; preds = %2
  %7 = icmp eq i64 %1, 0
  br i1 %7, label %.loopexit.sink.split.i, label %8

8:                                                ; preds = %6
  %9 = add i64 %.val37.i, -1
  %10 = icmp eq i64 %1, %9
  br i1 %10, label %.loopexit.sink.split.i, label %11

11:                                               ; preds = %8
  %12 = getelementptr inbounds nuw i8, ptr %0, i64 40
  %13 = load i64, ptr %12, align 8, !tbaa !46
  %14 = add i64 %13, %1
  %15 = lshr i64 %14, 6
  %16 = and i64 %14, 63
  %17 = ashr i64 %.val37.i, 1
  %18 = icmp slt i64 %1, %17
  br i1 %18, label %19, label %24

19:                                               ; preds = %11
  %20 = getelementptr inbounds nuw i8, ptr %0, i64 24
  %.13139.i = load ptr, ptr %20, align 8, !tbaa !41
  %.not42.i = icmp ult i64 %14, 64
  br i1 %.not42.i, label %.loopexit.i, label %.lr.ph.i

.lr.ph.i:                                         ; preds = %19, %.lr.ph.i
  %.13141.i = phi ptr [ %.131.i, %.lr.ph.i ], [ %.13139.i, %19 ]
  %.02840.i = phi i64 [ %21, %.lr.ph.i ], [ %15, %19 ]
  %21 = add nsw i64 %.02840.i, -1
  %22 = getelementptr inbounds nuw i8, ptr %.13141.i, i64 520
  %.131.i = load ptr, ptr %22, align 8, !tbaa !41
  %23 = icmp samesign ugt i64 %.02840.i, 1
  br i1 %23, label %.lr.ph.i, label %.loopexit.i, !llvm.loop !71

24:                                               ; preds = %11
  %25 = add i64 %13, %9
  %26 = lshr i64 %25, 6
  %27 = sub nsw i64 %26, %15
  %28 = getelementptr inbounds nuw i8, ptr %0, i64 32
  br label %29

29:                                               ; preds = %29, %24
  %.2.in.i = phi ptr [ %28, %24 ], [ %.2.i, %29 ]
  %.1.i = phi i64 [ %27, %24 ], [ %31, %29 ]
  %.2.i = load ptr, ptr %.2.in.i, align 8, !tbaa !41
  %30 = icmp sgt i64 %.1.i, 0
  %31 = add nsw i64 %.1.i, -1
  br i1 %30, label %29, label %.loopexit.i, !llvm.loop !72

.loopexit.sink.split.i:                           ; preds = %8, %6
  %.sink46.i = phi i64 [ 40, %6 ], [ 48, %8 ]
  %.sink45.i = phi i64 [ 24, %6 ], [ 32, %8 ]
  %32 = getelementptr inbounds nuw i8, ptr %0, i64 %.sink46.i
  %33 = load i64, ptr %32, align 8, !tbaa !73
  %34 = getelementptr inbounds nuw i8, ptr %0, i64 %.sink45.i
  %35 = load ptr, ptr %34, align 8, !tbaa !41
  br label %.loopexit.i

.loopexit.i:                                      ; preds = %29, %.lr.ph.i, %.loopexit.sink.split.i, %19
  %.030.i = phi ptr [ %.13139.i, %19 ], [ %35, %.loopexit.sink.split.i ], [ %.131.i, %.lr.ph.i ], [ %.2.i, %29 ]
  %.029.i = phi i64 [ %16, %19 ], [ %33, %.loopexit.sink.split.i ], [ %16, %.lr.ph.i ], [ %16, %29 ]
  %36 = getelementptr inbounds nuw i8, ptr %.030.i, i64 8
  %37 = getelementptr [64 x ptr], ptr %36, i64 0, i64 %.029.i
  %38 = load ptr, ptr %37, align 8, !tbaa !21
  %39 = load i32, ptr %38, align 8, !tbaa !20
  %40 = icmp slt i32 %39, 0
  br i1 %40, label %deque_item_lock_held.exit, label %41

41:                                               ; preds = %.loopexit.i
  %42 = add nuw i32 %39, 1
  store i32 %42, ptr %38, align 8, !tbaa !20
  br label %deque_item_lock_held.exit

deque_item_lock_held.exit:                        ; preds = %4, %.loopexit.i, %41
  %.0.i = phi ptr [ null, %4 ], [ %38, %.loopexit.i ], [ %38, %41 ]
  ret ptr %.0.i
}